; ModuleID = '7/1237.c'
source_filename = "7/1237.c"
target datalayout = "e-m:e-p270:32:32-p271:32:32-p272:64:64-i64:64-f80:128-n8:16:32:64-S128"
target triple = "x86_64-pc-linux-gnu"

%struct._IO_FILE = type { i32, i8*, i8*, i8*, i8*, i8*, i8*, i8*, i8*, i8*, i8*, i8*, %struct._IO_marker*, %struct._IO_FILE*, i32, i32, i64, i16, i8, [1 x i8], i8*, i64, %struct._IO_codecvt*, %struct._IO_wide_data*, %struct._IO_FILE*, i8*, i64, i32, [20 x i8] }
%struct._IO_marker = type opaque
%struct._IO_codecvt = type opaque
%struct._IO_wide_data = type opaque

@stdin = external dso_local global %struct._IO_FILE*, align 8
@.str = private unnamed_addr constant [3 x i8] c"%c\00", align 1

; Function Attrs: noinline nounwind uwtable
define dso_local i32 @main() #0 {
  %1 = alloca i32, align 4
  %2 = alloca [300 x i8], align 16
  %3 = alloca [300 x i8], align 16
  %4 = alloca [300 x i8], align 16
  %5 = alloca i32, align 4
  %6 = alloca i32, align 4
  %7 = alloca i32, align 4
  %8 = alloca i32, align 4
  %9 = alloca i32, align 4
  %10 = alloca i32, align 4
  store i32 0, i32* %1, align 4
  store i32 0, i32* %10, align 4
  %11 = getelementptr inbounds [300 x i8], [300 x i8]* %2, i64 0, i64 0
  %12 = load %struct._IO_FILE*, %struct._IO_FILE** @stdin, align 8
  %13 = call i8* @fgets(i8* %11, i32 300, %struct._IO_FILE* %12)
  %14 = getelementptr inbounds [300 x i8], [300 x i8]* %3, i64 0, i64 0
  %15 = load %struct._IO_FILE*, %struct._IO_FILE** @stdin, align 8
  %16 = call i8* @fgets(i8* %14, i32 300, %struct._IO_FILE* %15)
  %17 = getelementptr inbounds [300 x i8], [300 x i8]* %4, i64 0, i64 0
  %18 = load %struct._IO_FILE*, %struct._IO_FILE** @stdin, align 8
  %19 = call i8* @fgets(i8* %17, i32 300, %struct._IO_FILE* %18)
  %20 = getelementptr inbounds [300 x i8], [300 x i8]* %2, i64 0, i64 0
  %21 = call i64 @strlen(i8* %20) #3
  %22 = sub i64 %21, 1
  %23 = trunc i64 %22 to i32
  store i32 %23, i32* %7, align 4
  %24 = getelementptr inbounds [300 x i8], [300 x i8]* %3, i64 0, i64 0
  %25 = call i64 @strlen(i8* %24) #3
  %26 = sub i64 %25, 1
  %27 = trunc i64 %26 to i32
  store i32 %27, i32* %8, align 4
  store i32 0, i32* %5, align 4
  br label %28

28:                                               ; preds = %77, %0
  %29 = load i32, i32* %5, align 4
  %30 = load i32, i32* %7, align 4
  %31 = load i32, i32* %8, align 4
  %32 = sub nsw i32 %30, %31
  %33 = icmp sle i32 %29, %32
  br i1 %33, label %34, label %80

34:                                               ; preds = %28
  store i32 0, i32* %9, align 4
  store i32 0, i32* %6, align 4
  br label %35

35:                                               ; preds = %69, %34
  %36 = load i32, i32* %6, align 4
  %37 = load i32, i32* %8, align 4
  %38 = icmp slt i32 %36, %37
  br i1 %38, label %39, label %72

39:                                               ; preds = %35
  %40 = load i32, i32* %9, align 4
  %41 = load i32, i32* %5, align 4
  %42 = load i32, i32* %6, align 4
  %43 = add nsw i32 %41, %42
  %44 = sext i32 %43 to i64
  %45 = getelementptr inbounds [300 x i8], [300 x i8]* %2, i64 0, i64 %44
  %46 = load i8, i8* %45, align 1
  %47 = sext i8 %46 to i32
  %48 = load i32, i32* %6, align 4
  %49 = sext i32 %48 to i64
  %50 = getelementptr inbounds [300 x i8], [300 x i8]* %3, i64 0, i64 %49
  %51 = load i8, i8* %50, align 1
  %52 = sext i8 %51 to i32
  %53 = sub nsw i32 %47, %52
  %54 = load i32, i32* %5, align 4
  %55 = load i32, i32* %6, align 4
  %56 = add nsw i32 %54, %55
  %57 = sext i32 %56 to i64
  %58 = getelementptr inbounds [300 x i8], [300 x i8]* %2, i64 0, i64 %57
  %59 = load i8, i8* %58, align 1
  %60 = sext i8 %59 to i32
  %61 = load i32, i32* %6, align 4
  %62 = sext i32 %61 to i64
  %63 = getelementptr inbounds [300 x i8], [300 x i8]* %3, i64 0, i64 %62
  %64 = load i8, i8* %63, align 1
  %65 = sext i8 %64 to i32
  %66 = sub nsw i32 %60, %65
  %67 = mul nsw i32 %53, %66
  %68 = add nsw i32 %40, %67
  store i32 %68, i32* %9, align 4
  br label %69

69:                                               ; preds = %39
  %70 = load i32, i32* %6, align 4
  %71 = add nsw i32 %70, 1
  store i32 %71, i32* %6, align 4
  br label %35

72:                                               ; preds = %35
  %73 = load i32, i32* %9, align 4
  %74 = icmp eq i32 %73, 0
  br i1 %74, label %75, label %76

75:                                               ; preds = %72
  store i32 1, i32* %10, align 4
  br label %80

76:                                               ; preds = %72
  br label %77

77:                                               ; preds = %76
  %78 = load i32, i32* %5, align 4
  %79 = add nsw i32 %78, 1
  store i32 %79, i32* %5, align 4
  br label %28

80:                                               ; preds = %75, %28
  %81 = load i32, i32* %10, align 4
  %82 = icmp eq i32 %81, 1
  br i1 %82, label %83, label %137

83:                                               ; preds = %80
  store i32 0, i32* %6, align 4
  br label %84

84:                                               ; preds = %96, %83
  %85 = load i32, i32* %6, align 4
  %86 = load i32, i32* %5, align 4
  %87 = sub nsw i32 %86, 1
  %88 = icmp sle i32 %85, %87
  br i1 %88, label %89, label %99

89:                                               ; preds = %84
  %90 = load i32, i32* %6, align 4
  %91 = sext i32 %90 to i64
  %92 = getelementptr inbounds [300 x i8], [300 x i8]* %2, i64 0, i64 %91
  %93 = load i8, i8* %92, align 1
  %94 = sext i8 %93 to i32
  %95 = call i32 (i8*, ...) @printf(i8* getelementptr inbounds ([3 x i8], [3 x i8]* @.str, i64 0, i64 0), i32 %94)
  br label %96

96:                                               ; preds = %89
  %97 = load i32, i32* %6, align 4
  %98 = add nsw i32 %97, 1
  store i32 %98, i32* %6, align 4
  br label %84

99:                                               ; preds = %84
  store i32 0, i32* %6, align 4
  br label %100

100:                                              ; preds = %114, %99
  %101 = load i32, i32* %6, align 4
  %102 = sext i32 %101 to i64
  %103 = getelementptr inbounds [300 x i8], [300 x i8]* %4, i64 0, i64 %102
  %104 = load i8, i8* %103, align 1
  %105 = sext i8 %104 to i32
  %106 = icmp ne i32 %105, 10
  br i1 %106, label %107, label %117

107:                                              ; preds = %100
  %108 = load i32, i32* %6, align 4
  %109 = sext i32 %108 to i64
  %110 = getelementptr inbounds [300 x i8], [300 x i8]* %4, i64 0, i64 %109
  %111 = load i8, i8* %110, align 1
  %112 = sext i8 %111 to i32
  %113 = call i32 (i8*, ...) @printf(i8* getelementptr inbounds ([3 x i8], [3 x i8]* @.str, i64 0, i64 0), i32 %112)
  br label %114

114:                                              ; preds = %107
  %115 = load i32, i32* %6, align 4
  %116 = add nsw i32 %115, 1
  store i32 %116, i32* %6, align 4
  br label %100

117:                                              ; preds = %100
  %118 = load i32, i32* %5, align 4
  %119 = load i32, i32* %8, align 4
  %120 = add nsw i32 %118, %119
  store i32 %120, i32* %6, align 4
  br label %121

121:                                              ; preds = %133, %117
  %122 = load i32, i32* %6, align 4
  %123 = load i32, i32* %7, align 4
  %124 = sub nsw i32 %123, 1
  %125 = icmp sle i32 %122, %124
  br i1 %125, label %126, label %136

126:                                              ; preds = %121
  %127 = load i32, i32* %6, align 4
  %128 = sext i32 %127 to i64
  %129 = getelementptr inbounds [300 x i8], [300 x i8]* %2, i64 0, i64 %128
  %130 = load i8, i8* %129, align 1
  %131 = sext i8 %130 to i32
  %132 = call i32 (i8*, ...) @printf(i8* getelementptr inbounds ([3 x i8], [3 x i8]* @.str, i64 0, i64 0), i32 %131)
  br label %133

133:                                              ; preds = %126
  %134 = load i32, i32* %6, align 4
  %135 = add nsw i32 %134, 1
  store i32 %135, i32* %6, align 4
  br label %121

136:                                              ; preds = %121
  br label %153

137:                                              ; preds = %80
  store i32 0, i32* %6, align 4
  br label %138

138:                                              ; preds = %149, %137
  %139 = load i32, i32* %6, align 4
  %140 = load i32, i32* %7, align 4
  %141 = icmp slt i32 %139, %140
  br i1 %141, label %142, label %152

142:                                              ; preds = %138
  %143 = load i32, i32* %6, align 4
  %144 = sext i32 %143 to i64
  %145 = getelementptr inbounds [300 x i8], [300 x i8]* %2, i64 0, i64 %144
  %146 = load i8, i8* %145, align 1
  %147 = sext i8 %146 to i32
  %148 = call i32 (i8*, ...) @printf(i8* getelementptr inbounds ([3 x i8], [3 x i8]* @.str, i64 0, i64 0), i32 %147)
  br label %149

149:                                              ; preds = %142
  %150 = load i32, i32* %6, align 4
  %151 = add nsw i32 %150, 1
  store i32 %151, i32* %6, align 4
  br label %138

152:                                              ; preds = %138
  br label %153

153:                                              ; preds = %152, %136
  ret i32 0
}

declare dso_local i8* @fgets(i8*, i32, %struct._IO_FILE*) #1

; Function Attrs: nounwind readonly
declare dso_local i64 @strlen(i8*) #2

declare dso_local i32 @printf(i8*, ...) #1


!llvm.module.flags = !{!0}
!llvm.ident = !{!1}

!0 = !{i32 1, !"wchar_size", i32 4}
!1 = !{!"clang version 10.0.0-4ubuntu1 "}
